; Function Attrs: mustprogress nofree norecurse nosync nounwind willreturn memory(read, argmem: readwrite, inaccessiblemem: none) uwtable
define void @_ZN3g2o7cholmod7Cholmod6factorEv(ptr dead_on_unwind noalias writable writeonly sret(%"struct.g2o::cholmod::Cholmod::FactorView") align 8 captures(none) initializes((0, 40)) %0, ptr noundef nonnull readonly align 8 captures(none) dereferenceable(8) %1) local_unnamed_addr #6 align 2 {
  %3 = load ptr, ptr %1, align 8, !tbaa !29
  %4 = getelementptr inbounds nuw i8, ptr %3, i64 2760
  %5 = load ptr, ptr %4, align 8, !tbaa !20
  %6 = getelementptr inbounds nuw i8, ptr %5, i64 48
  %7 = getelementptr inbounds nuw i8, ptr %5, i64 56
  %8 = getelementptr inbounds nuw i8, ptr %5, i64 64
  %9 = getelementptr inbounds nuw i8, ptr %5, i64 16
  store ptr %5, ptr %0, align 8, !tbaa !48
  %10 = getelementptr inbounds nuw i8, ptr %0, i64 8
  store ptr %6, ptr %10, align 8, !tbaa !49
  %11 = getelementptr inbounds nuw i8, ptr %0, i64 16
  store ptr %7, ptr %11, align 8, !tbaa !49
  %12 = getelementptr inbounds nuw i8, ptr %0, i64 24
  store ptr %8, ptr %12, align 8, !tbaa !50
  %13 = getelementptr inbounds nuw i8, ptr %0, i64 32
  store ptr %9, ptr %13, align 8, !tbaa !49
  ret void
}